ARM GAS  C:\Users\jsing\AppData\Local\Temp\ccWJCadF.s 			page 1


   1              		.cpu cortex-m0
   2              		.fpu softvfp
   3              		.eabi_attribute 20, 1
   4              		.eabi_attribute 21, 1
   5              		.eabi_attribute 23, 3
   6              		.eabi_attribute 24, 1
   7              		.eabi_attribute 25, 1
   8              		.eabi_attribute 26, 1
   9              		.eabi_attribute 30, 6
  10              		.eabi_attribute 34, 0
  11              		.eabi_attribute 18, 4
  12              		.code	16
  13              		.file	"main.c"
  14              		.text
  15              	.Ltext0:
  16              		.cfi_sections	.debug_frame
  17              		.section	.text.InitializeSystem,"ax",%progbits
  18              		.align	2
  19              		.code	16
  20              		.thumb_func
  21              		.type	InitializeSystem, %function
  22              	InitializeSystem:
  23              	.LFB35:
  24              		.file 1 ".\\main.c"
   1:.\main.c      **** /*****************************************************************************
   2:.\main.c      **** * File Name: main.c
   3:.\main.c      **** *
   4:.\main.c      **** * Version: 1.0
   5:.\main.c      **** *
   6:.\main.c      **** * Description:
   7:.\main.c      **** * This is the top level file for the PSoC 4 BLE Lab 3.
   8:.\main.c      **** *
   9:.\main.c      **** * Hardware Dependency:
  10:.\main.c      **** * CY8CKIT-042 BLE Pioneer Kit
  11:.\main.c      **** *
  12:.\main.c      **** ******************************************************************************
  13:.\main.c      **** * Copyright (2014), Cypress Semiconductor Corporation.
  14:.\main.c      **** ******************************************************************************
  15:.\main.c      **** * This software is owned by Cypress Semiconductor Corporation (Cypress) and is
  16:.\main.c      **** * protected by and subject to worldwide patent protection (United States and
  17:.\main.c      **** * foreign), United States copyright laws and international treaty provisions.
  18:.\main.c      **** * Cypress hereby grants to licensee a personal, non-exclusive, non-transferable
  19:.\main.c      **** * license to copy, use, modify, create derivative works of, and compile the
  20:.\main.c      **** * Cypress Source Code and derivative works for the sole purpose of creating
  21:.\main.c      **** * custom software in support of licensee product to be used only in conjunction
  22:.\main.c      **** * with a Cypress integrated circuit as specified in the applicable agreement.
  23:.\main.c      **** * Any reproduction, modification, translation, compilation, or representation of
  24:.\main.c      **** * this software except as specified above is prohibited without the express
  25:.\main.c      **** * written permission of Cypress.
  26:.\main.c      **** *
  27:.\main.c      **** * Disclaimer: CYPRESS MAKES NO WARRANTY OF ANY KIND, EXPRESS OR IMPLIED, WITH
  28:.\main.c      **** * REGARD TO THIS MATERIAL, INCLUDING, BUT NOT LIMITED TO, THE IMPLIED
  29:.\main.c      **** * WARRANTIES OF MERCHANTABILITY AND FITNESS FOR A PARTICULAR PURPOSE.
  30:.\main.c      **** * Cypress reserves the right to make changes without further notice to the
  31:.\main.c      **** * materials described herein. Cypress does not assume any liability arising out
  32:.\main.c      **** * of the application or use of any product or circuit described herein. Cypress
  33:.\main.c      **** * does not authorize its products for use as critical components in life-support
ARM GAS  C:\Users\jsing\AppData\Local\Temp\ccWJCadF.s 			page 2


  34:.\main.c      **** * systems where a malfunction or failure may reasonably be expected to result in
  35:.\main.c      **** * significant injury to the user. The inclusion of Cypress' product in a life-
  36:.\main.c      **** * support systems application implies that the manufacturer assumes all risk of
  37:.\main.c      **** * such use and in doing so indemnifies Cypress against all charges. Use may be
  38:.\main.c      **** * limited by and subject to the applicable Cypress software license agreement.
  39:.\main.c      **** *****************************************************************************/
  40:.\main.c      **** 
  41:.\main.c      **** 
  42:.\main.c      **** /*****************************************************************************
  43:.\main.c      **** * Included headers
  44:.\main.c      **** *****************************************************************************/
  45:.\main.c      **** #include <project.h>
  46:.\main.c      **** #include <stdbool.h>
  47:.\main.c      **** #include "main.h"
  48:.\main.c      **** #include "HeartRateProcessing.h"
  49:.\main.c      **** #include "BleProcessing.h"
  50:.\main.c      **** #include "WatchdogTimer.h"
  51:.\main.c      **** 
  52:.\main.c      **** 
  53:.\main.c      **** /*****************************************************************************
  54:.\main.c      **** * Macros
  55:.\main.c      **** *****************************************************************************/
  56:.\main.c      **** #define TIME_SINCE_CONNECTED_MS         (5000)
  57:.\main.c      **** 
  58:.\main.c      **** 
  59:.\main.c      **** /*****************************************************************************
  60:.\main.c      **** * Global variables
  61:.\main.c      **** *****************************************************************************/
  62:.\main.c      **** //static CYBLE_GAP_CONN_UPDATE_PARAM_T hrmConnectionParam =
  63:.\main.c      **** //{
  64:.\main.c      **** //    16,         /* Minimum connection interval of 20 ms */
  65:.\main.c      **** //    16,         /* Maximum connection interval of 20 ms */
  66:.\main.c      **** //    49,         /* Slave latency of 49 */
  67:.\main.c      **** //    500         /* Supervision timeout of 5 seconds */
  68:.\main.c      **** //};
  69:.\main.c      **** 
  70:.\main.c      **** 
  71:.\main.c      **** /*****************************************************************************
  72:.\main.c      **** * Static function definitions
  73:.\main.c      **** *****************************************************************************/
  74:.\main.c      **** 
  75:.\main.c      **** /*****************************************************************************
  76:.\main.c      **** * Function Name: InitializeSystem
  77:.\main.c      **** ******************************************************************************
  78:.\main.c      **** * Summary:
  79:.\main.c      **** * Initializes all the blocks of the system.
  80:.\main.c      **** *
  81:.\main.c      **** * Parameters:
  82:.\main.c      **** * None
  83:.\main.c      **** *
  84:.\main.c      **** * Return:
  85:.\main.c      **** * None
  86:.\main.c      **** *
  87:.\main.c      **** * Theory:
  88:.\main.c      **** * The function enables the Opamp and ADC for the heart rate measurement, and 
  89:.\main.c      **** * setups the BLE component. It also starts the watchdog timer and ensures that 
  90:.\main.c      **** * all the status LEDs are off at system startup. 
ARM GAS  C:\Users\jsing\AppData\Local\Temp\ccWJCadF.s 			page 3


  91:.\main.c      **** *
  92:.\main.c      **** * Side Effects:
  93:.\main.c      **** * None
  94:.\main.c      **** *
  95:.\main.c      **** *****************************************************************************/
  96:.\main.c      **** static void InitializeSystem(void)
  97:.\main.c      **** {
  25              		.loc 1 97 0
  26              		.cfi_startproc
  27 0000 80B5     		push	{r7, lr}
  28              		.cfi_def_cfa_offset 8
  29              		.cfi_offset 7, -8
  30              		.cfi_offset 14, -4
  31 0002 00AF     		add	r7, sp, #0
  32              		.cfi_def_cfa_register 7
  98:.\main.c      ****     #if (RGB_LED_IN_PROJECT)
  99:.\main.c      ****         /* Turn off all LEDs */
 100:.\main.c      ****         Led_Advertising_Green_Write(1);
  33              		.loc 1 100 0
  34 0004 0120     		mov	r0, #1
  35 0006 FFF7FEFF 		bl	Led_Advertising_Green_Write
 101:.\main.c      ****         Led_Connected_Blue_Write(1);
  36              		.loc 1 101 0
  37 000a 0120     		mov	r0, #1
  38 000c FFF7FEFF 		bl	Led_Connected_Blue_Write
 102:.\main.c      ****     #endif  /* #if (RGB_LED_IN_PROJECT) */
 103:.\main.c      **** 
 104:.\main.c      ****     /* Enabling Global interrupts */
 105:.\main.c      ****     CyGlobalIntEnable; 
  39              		.loc 1 105 0
  40              	@ 105 ".\main.c" 1
  41 0010 62B6     		CPSIE   i
  42              	@ 0 "" 2
 106:.\main.c      **** 	
 107:.\main.c      ****     /* Start Opamp and ADC components */
 108:.\main.c      **** 	Opamp_Start();
  43              		.loc 1 108 0
  44              		.code	16
  45 0012 FFF7FEFF 		bl	Opamp_Start
 109:.\main.c      ****     ADC_Start();
  46              		.loc 1 109 0
  47 0016 FFF7FEFF 		bl	ADC_Start
 110:.\main.c      **** 	
 111:.\main.c      ****     /* Start BLE component */
 112:.\main.c      ****     CyBle_Start(GeneralEventHandler);
  48              		.loc 1 112 0
  49 001a 064B     		ldr	r3, .L2
  50 001c 181C     		mov	r0, r3
  51 001e FFF7FEFF 		bl	CyBle_Start
 113:.\main.c      ****     
 114:.\main.c      ****     
 115:.\main.c      ****     /* Register the Heart Rate Service event handler callback. The function
 116:.\main.c      ****      * to be registered is HrsEventHandler().
 117:.\main.c      ****      */
 118:.\main.c      **** 	CyBle_HrsRegisterAttrCallback(HrsEventHandler);
  52              		.loc 1 118 0
  53 0022 054B     		ldr	r3, .L2+4
ARM GAS  C:\Users\jsing\AppData\Local\Temp\ccWJCadF.s 			page 4


  54 0024 181C     		mov	r0, r3
  55 0026 FFF7FEFF 		bl	CyBle_HrsRegisterAttrCallback
 119:.\main.c      ****     
 120:.\main.c      ****     
 121:.\main.c      ****     /* Start the Watchdog Timer */
 122:.\main.c      **** 	WatchdogTimer_Start();
  56              		.loc 1 122 0
  57 002a FFF7FEFF 		bl	WatchdogTimer_Start
 123:.\main.c      **** }
  58              		.loc 1 123 0
  59 002e BD46     		mov	sp, r7
  60              		@ sp needed
  61 0030 80BD     		pop	{r7, pc}
  62              	.L3:
  63 0032 C046     		.align	2
  64              	.L2:
  65 0034 00000000 		.word	GeneralEventHandler
  66 0038 00000000 		.word	HrsEventHandler
  67              		.cfi_endproc
  68              	.LFE35:
  69              		.size	InitializeSystem, .-InitializeSystem
  70              		.section	.text.main,"ax",%progbits
  71              		.align	2
  72              		.global	main
  73              		.code	16
  74              		.thumb_func
  75              		.type	main, %function
  76              	main:
  77              	.LFB36:
 124:.\main.c      **** 
 125:.\main.c      **** 
 126:.\main.c      **** /*****************************************************************************
 127:.\main.c      **** * Public function definitions
 128:.\main.c      **** *****************************************************************************/
 129:.\main.c      **** 
 130:.\main.c      **** /*****************************************************************************
 131:.\main.c      **** * Function Name: main
 132:.\main.c      **** ******************************************************************************
 133:.\main.c      **** * Summary:
 134:.\main.c      **** * The main function for the project.
 135:.\main.c      **** *
 136:.\main.c      **** * Parameters:
 137:.\main.c      **** * None
 138:.\main.c      **** *
 139:.\main.c      **** * Return:
 140:.\main.c      **** * None
 141:.\main.c      **** *
 142:.\main.c      **** * Theory:
 143:.\main.c      **** * The main function first calls the initialization function to start the 
 144:.\main.c      **** * system, and then enters a loop to run forever. In the main loop, it scans
 145:.\main.c      **** * the heart rate first, then sends a notification packet every second to a 
 146:.\main.c      **** * BLE connected device. It then enters low power (deep sleep) state, waiting
 147:.\main.c      **** * for the periodic wakeup interrupt from watchdog timer.
 148:.\main.c      **** * When the device is disconnected or when advertisement timeout happens, 
 149:.\main.c      **** * the device enters Hibernate mode, waiting for the SW2 switch press to wakeup.
 150:.\main.c      **** *
 151:.\main.c      **** * Side Effects:
ARM GAS  C:\Users\jsing\AppData\Local\Temp\ccWJCadF.s 			page 5


 152:.\main.c      **** * None
 153:.\main.c      **** *
 154:.\main.c      **** *****************************************************************************/
 155:.\main.c      **** int main()
 156:.\main.c      **** {
  78              		.loc 1 156 0
  79              		.cfi_startproc
  80 0000 90B5     		push	{r4, r7, lr}
  81              		.cfi_def_cfa_offset 12
  82              		.cfi_offset 4, -12
  83              		.cfi_offset 7, -8
  84              		.cfi_offset 14, -4
  85 0002 83B0     		sub	sp, sp, #12
  86              		.cfi_def_cfa_offset 24
  87 0004 00AF     		add	r7, sp, #0
  88              		.cfi_def_cfa_register 7
 157:.\main.c      ****     static uint32 previousTimestamp = 0;
 158:.\main.c      ****     static uint32 currentTimestamp = 0;
 159:.\main.c      ****     //CYBLE_LP_MODE_T bleMode;
 160:.\main.c      ****     uint8 interruptStatus;
 161:.\main.c      ****     
 162:.\main.c      ****     /* Initialize all blocks of the system */
 163:.\main.c      **** 	InitializeSystem();
  89              		.loc 1 163 0
  90 0006 FFF7FEFF 		bl	InitializeSystem
 164:.\main.c      ****     
 165:.\main.c      ****     /* Run forever */
 166:.\main.c      ****     PWM_1_Start();
  91              		.loc 1 166 0
  92 000a FFF7FEFF 		bl	PWM_1_Start
  93              	.L9:
 167:.\main.c      ****     for(;;)
 168:.\main.c      ****     {
 169:.\main.c      ****         /* Wake up ADC from low power mode */
 170:.\main.c      ****         ADC_Wakeup();
  94              		.loc 1 170 0
  95 000e FFF7FEFF 		bl	ADC_Wakeup
 171:.\main.c      ****         
 172:.\main.c      ****         /* Analog Front End. 
 173:.\main.c      ****          * Detects the input signal and measures Heart Rate 
 174:.\main.c      ****          */
 175:.\main.c      ****         ProcessHeartRateSignal();
  96              		.loc 1 175 0
  97 0012 FFF7FEFF 		bl	ProcessHeartRateSignal
 176:.\main.c      **** 
 177:.\main.c      ****         /* Put ADC in low power mode */
 178:.\main.c      ****         ADC_Sleep();
  98              		.loc 1 178 0
  99 0016 FFF7FEFF 		bl	ADC_Sleep
 179:.\main.c      ****         
 180:.\main.c      ****         /* Measure the current system timestamp from watchdog timer */
 181:.\main.c      ****         currentTimestamp = WatchdogTimer_GetTimestamp();        
 100              		.loc 1 181 0
 101 001a FFF7FEFF 		bl	WatchdogTimer_GetTimestamp
 102 001e 021C     		mov	r2, r0
 103 0020 1F4B     		ldr	r3, .L10
 104 0022 1A60     		str	r2, [r3]
ARM GAS  C:\Users\jsing\AppData\Local\Temp\ccWJCadF.s 			page 6


 182:.\main.c      **** 
 183:.\main.c      ****         /* Update BLE connection parameters a few seconds after connection */
 184:.\main.c      **** //        if((CyBle_GetState() == CYBLE_STATE_CONNECTED) && 
 185:.\main.c      **** //           (connParamRequestState == CONN_PARAM_REQUEST_NOT_SENT))
 186:.\main.c      **** //        {
 187:.\main.c      **** //            if((currentTimestamp - timestampWhenConnected) > TIME_SINCE_CONNECTED_MS)
 188:.\main.c      **** //            {
 189:.\main.c      **** //                CyBle_L2capLeConnectionParamUpdateRequest(cyBle_connHandle.bdHandle, &hrmConnecti
 190:.\main.c      **** //                connParamRequestState = CONN_PARAM_REQUEST_SENT;
 191:.\main.c      **** //            }
 192:.\main.c      **** //        }
 193:.\main.c      ****         
 194:.\main.c      ****         
 195:.\main.c      ****         /* Send Heart Rate notification over BLE every second.
 196:.\main.c      ****          * Check if the current timestamp minus previous exceeds 1000 ms.
 197:.\main.c      ****          */
 198:.\main.c      ****         if((currentTimestamp - previousTimestamp) >= 1000)
 105              		.loc 1 198 0
 106 0024 1E4B     		ldr	r3, .L10
 107 0026 1A68     		ldr	r2, [r3]
 108 0028 1E4B     		ldr	r3, .L10+4
 109 002a 1B68     		ldr	r3, [r3]
 110 002c D21A     		sub	r2, r2, r3
 111 002e 1E4B     		ldr	r3, .L10+8
 112 0030 9A42     		cmp	r2, r3
 113 0032 06D9     		bls	.L5
 199:.\main.c      ****         {
 200:.\main.c      ****             /* Call API defined in BleProcessing.c to send 
 201:.\main.c      ****              * notification over BLE.
 202:.\main.c      ****              */
 203:.\main.c      ****             SendHeartRateOverBLE();
 114              		.loc 1 203 0
 115 0034 FFF7FEFF 		bl	SendHeartRateOverBLE
 204:.\main.c      ****             
 205:.\main.c      ****             /* Update the previous timestamp with the current timestamp. */
 206:.\main.c      ****             previousTimestamp = currentTimestamp;
 116              		.loc 1 206 0
 117 0038 194B     		ldr	r3, .L10
 118 003a 1A68     		ldr	r2, [r3]
 119 003c 194B     		ldr	r3, .L10+4
 120 003e 1A60     		str	r2, [r3]
 207:.\main.c      ****         }
 208:.\main.c      **** 
 209:.\main.c      ****         /* Try to stay in low power mode until the next watchdog interrupt */
 210:.\main.c      ****         while(WatchdogTimer_GetTimestamp() == currentTimestamp)
 121              		.loc 1 210 0
 122 0040 0CE0     		b	.L6
 123              	.L5:
 124 0042 0BE0     		b	.L6
 125              	.L7:
 211:.\main.c      ****         {
 212:.\main.c      ****             /* Process any pending BLE events */
 213:.\main.c      ****             CyBle_ProcessEvents();
 126              		.loc 1 213 0
 127 0044 FFF7FEFF 		bl	CyBle_ProcessEvents
 214:.\main.c      ****             
 215:.\main.c      ****             /* The idea of low power operation is to first request the BLE 
ARM GAS  C:\Users\jsing\AppData\Local\Temp\ccWJCadF.s 			page 7


 216:.\main.c      ****              * block go to Deep Sleep, and then check whether it actually
 217:.\main.c      ****              * entered Deep Sleep. This is important because the BLE block
 218:.\main.c      ****              * runs asynchronous to the rest of the application and thus
 219:.\main.c      ****              * could be busy/idle independent of the application state. 
 220:.\main.c      ****              * 
 221:.\main.c      ****              * Once the BLE block is in Deep Sleep, only then the system 
 222:.\main.c      ****              * can enter Deep Sleep. This is important to maintain the BLE 
 223:.\main.c      ****              * connection alive while being in Deep Sleep.
 224:.\main.c      ****              */
 225:.\main.c      **** 
 226:.\main.c      ****             
 227:.\main.c      ****             /* Request the BLE block to enter Deep Sleep */
 228:.\main.c      ****           //  bleMode = CyBle_EnterLPM(CYBLE_BLESS_DEEPSLEEP);
 229:.\main.c      **** 
 230:.\main.c      ****             
 231:.\main.c      ****             /* Check if the BLE block entered Deep Sleep and if so, then the 
 232:.\main.c      ****              * system can enter Deep Sleep. This is done inside a Critical 
 233:.\main.c      ****              * Section (where global interrupts are disabled) to avoid a 
 234:.\main.c      ****              * race condition between application main (that wants to go to 
 235:.\main.c      ****              * Deep Sleep) and other interrupts (which keep the device from 
 236:.\main.c      ****              * going to Deep Sleep). 
 237:.\main.c      ****              */
 238:.\main.c      ****             interruptStatus = CyEnterCriticalSection();
 128              		.loc 1 238 0
 129 0048 FC1D     		add	r4, r7, #7
 130 004a FFF7FEFF 		bl	CyEnterCriticalSection
 131 004e 031C     		mov	r3, r0
 132 0050 2370     		strb	r3, [r4]
 239:.\main.c      ****             
 240:.\main.c      ****             /* Check if the BLE block entered Deep Sleep */
 241:.\main.c      ****            // if(CYBLE_BLESS_DEEPSLEEP == bleMode)
 242:.\main.c      ****           //  {
 243:.\main.c      ****                 /* Check the current state of BLE - System can enter Deep Sleep
 244:.\main.c      ****                  * only when the BLE block is starting the ECO (during 
 245:.\main.c      ****                  * pre-processing for a new connection event) or when it is 
 246:.\main.c      ****                  * idle.
 247:.\main.c      ****                  */
 248:.\main.c      ****           //      if((CyBle_GetBleSsState() == CYBLE_BLESS_STATE_ECO_ON) ||
 249:.\main.c      ****           //         (CyBle_GetBleSsState() == CYBLE_BLESS_STATE_DEEPSLEEP))
 250:.\main.c      ****           //      {
 251:.\main.c      ****           //          CySysPmDeepSleep();
 252:.\main.c      ****           //      }
 253:.\main.c      ****          //   }
 254:.\main.c      ****             /* The else condition signifies that the BLE block cannot enter 
 255:.\main.c      ****              * Deep Sleep and is in Active mode.  
 256:.\main.c      ****              */
 257:.\main.c      ****           //  else
 258:.\main.c      ****           //  {
 259:.\main.c      ****                 /* At this point, the CPU can enter Sleep, but Deep Sleep is not
 260:.\main.c      ****                  * allowed. 
 261:.\main.c      ****                  * There is one exception - at a connection event, when the BLE 
 262:.\main.c      ****                  * Rx/Tx has just finished, and the post processing for the 
 263:.\main.c      ****                  * connection event is ongoing, the CPU cannot go to sleep.
 264:.\main.c      ****                  * The CPU should wait in Active mode until the post processing 
 265:.\main.c      ****                  * is complete while continuously polling the BLE low power 
 266:.\main.c      ****                  * entry. As soon as post processing is complete, the BLE block 
 267:.\main.c      ****                  * would enter Deep Sleep (because of the polling) and the 
ARM GAS  C:\Users\jsing\AppData\Local\Temp\ccWJCadF.s 			page 8


 268:.\main.c      ****                  * system Deep Sleep would then be entered. Deep Sleep is the 
 269:.\main.c      ****                  * preferred low power mode since it takes much lesser current.
 270:.\main.c      ****                  */
 271:.\main.c      ****           //      if(CyBle_GetBleSsState() != CYBLE_BLESS_STATE_EVENT_CLOSE)
 272:.\main.c      ****           //      {
 273:.\main.c      ****           //          CySysPmSleep();
 274:.\main.c      ****           //      }
 275:.\main.c      ****           //  }
 276:.\main.c      ****             
 277:.\main.c      ****             /* Exit Critical section - Global interrupts are enabled again */
 278:.\main.c      ****             CyExitCriticalSection(interruptStatus);
 133              		.loc 1 278 0
 134 0052 FB1D     		add	r3, r7, #7
 135 0054 1B78     		ldrb	r3, [r3]
 136 0056 181C     		mov	r0, r3
 137 0058 FFF7FEFF 		bl	CyExitCriticalSection
 138              	.L6:
 210:.\main.c      ****         while(WatchdogTimer_GetTimestamp() == currentTimestamp)
 139              		.loc 1 210 0 discriminator 1
 140 005c FFF7FEFF 		bl	WatchdogTimer_GetTimestamp
 141 0060 021C     		mov	r2, r0
 142 0062 0F4B     		ldr	r3, .L10
 143 0064 1B68     		ldr	r3, [r3]
 144 0066 9A42     		cmp	r2, r3
 145 0068 ECD0     		beq	.L7
 279:.\main.c      ****         }
 280:.\main.c      **** 
 281:.\main.c      ****         /* Hibernate entry point - Hibernate is entered upon a BLE disconnect
 282:.\main.c      ****          * event or advertisement timeout. Wakeup happens via SW2 switch press, 
 283:.\main.c      ****          * upon which the execution starts from the first line of code. 
 284:.\main.c      ****          * The I/O state, RAM and UDBs are retained during Hibernate.
 285:.\main.c      ****          */
 286:.\main.c      ****         if(enterHibernateFlag)
 146              		.loc 1 286 0
 147 006a 104B     		ldr	r3, .L10+12
 148 006c 1B78     		ldrb	r3, [r3]
 149 006e 002B     		cmp	r3, #0
 150 0070 14D0     		beq	.L8
 287:.\main.c      ****         {
 288:.\main.c      ****             /* Stop the BLE component */
 289:.\main.c      ****             CyBle_Stop();
 151              		.loc 1 289 0
 152 0072 FFF7FEFF 		bl	CyBle_Stop
 290:.\main.c      ****             
 291:.\main.c      ****             /* Enable the Hibernate wakeup functionality */
 292:.\main.c      ****             SW2_Switch_ClearInterrupt();
 153              		.loc 1 292 0
 154 0076 FFF7FEFF 		bl	SW2_Switch_ClearInterrupt
 293:.\main.c      ****             Wakeup_ISR_Start();
 155              		.loc 1 293 0
 156 007a FFF7FEFF 		bl	Wakeup_ISR_Start
 294:.\main.c      ****             
 295:.\main.c      ****             #if (RGB_LED_IN_PROJECT)
 296:.\main.c      ****                 /* Turn off Green and Blue LEDs to indicate Hibernate */
 297:.\main.c      ****                 Led_Advertising_Green_Write(1);
 157              		.loc 1 297 0
 158 007e 0120     		mov	r0, #1
ARM GAS  C:\Users\jsing\AppData\Local\Temp\ccWJCadF.s 			page 9


 159 0080 FFF7FEFF 		bl	Led_Advertising_Green_Write
 298:.\main.c      ****                 Led_Connected_Blue_Write(1);
 160              		.loc 1 298 0
 161 0084 0120     		mov	r0, #1
 162 0086 FFF7FEFF 		bl	Led_Connected_Blue_Write
 299:.\main.c      ****                 
 300:.\main.c      ****                 /* Change the GPIO state to High-Z */
 301:.\main.c      ****                 Led_Advertising_Green_SetDriveMode(Led_Advertising_Green_DM_ALG_HIZ);
 163              		.loc 1 301 0
 164 008a 0020     		mov	r0, #0
 165 008c FFF7FEFF 		bl	Led_Advertising_Green_SetDriveMode
 302:.\main.c      ****                 Led_Connected_Blue_SetDriveMode(Led_Connected_Blue_DM_ALG_HIZ);
 166              		.loc 1 302 0
 167 0090 0020     		mov	r0, #0
 168 0092 FFF7FEFF 		bl	Led_Connected_Blue_SetDriveMode
 303:.\main.c      ****             #endif  /* #if (RGB_LED_IN_PROJECT) */
 304:.\main.c      ****             
 305:.\main.c      ****             /* Enter hibernate mode */
 306:.\main.c      ****             CySysPmHibernate();
 169              		.loc 1 306 0
 170 0096 FFF7FEFF 		bl	CySysPmHibernate
 307:.\main.c      ****         }
 308:.\main.c      ****     }
 171              		.loc 1 308 0
 172 009a B8E7     		b	.L9
 173              	.L8:
 174 009c B7E7     		b	.L9
 175              	.L11:
 176 009e C046     		.align	2
 177              	.L10:
 178 00a0 00000000 		.word	currentTimestamp.6600
 179 00a4 04000000 		.word	previousTimestamp.6599
 180 00a8 E7030000 		.word	999
 181 00ac 00000000 		.word	enterHibernateFlag
 182              		.cfi_endproc
 183              	.LFE36:
 184              		.size	main, .-main
 185              		.bss
 186              		.align	2
 187              	currentTimestamp.6600:
 188 0000 00000000 		.space	4
 189              		.align	2
 190              	previousTimestamp.6599:
 191 0004 00000000 		.space	4
 192              		.text
 193              	.Letext0:
 194              		.file 2 ".\\Generated_Source\\PSoC4/cytypes.h"
 195              		.file 3 ".\\BleProcessing.h"